
bin/arch/x86/sys/syscalls.o:     file format elf32-i386


Disassembly of section .text:

00000000 <syscall>:
   0:	55                   	push   %ebp
   1:	89 e5                	mov    %esp,%ebp
   3:	83 ec 08             	sub    $0x8,%esp
   6:	83 ec 08             	sub    $0x8,%esp
   9:	ff 75 08             	push   0x8(%ebp)
   c:	68 00 00 00 00       	push   $0x0
  11:	e8 fc ff ff ff       	call   12 <syscall+0x12>
  16:	83 c4 10             	add    $0x10,%esp
  19:	89 f8                	mov    %edi,%eax
  1b:	cd 80                	int    $0x80
  1d:	90                   	nop
  1e:	c9                   	leave
  1f:	c3                   	ret

00000020 <syscall_test01>:
  20:	55                   	push   %ebp
  21:	89 e5                	mov    %esp,%ebp
  23:	83 ec 08             	sub    $0x8,%esp
  26:	83 ec 0c             	sub    $0xc,%esp
  29:	6a 03                	push   $0x3
  2b:	e8 fc ff ff ff       	call   2c <syscall_test01+0xc>
  30:	83 c4 10             	add    $0x10,%esp
  33:	83 ec 0c             	sub    $0xc,%esp
  36:	68 03 00 00 00       	push   $0x3
  3b:	e8 fc ff ff ff       	call   3c <syscall_test01+0x1c>
  40:	83 c4 10             	add    $0x10,%esp
  43:	e8 fc ff ff ff       	call   44 <syscall_test01+0x24>
  48:	90                   	nop
  49:	c9                   	leave
  4a:	c3                   	ret

0000004b <syscall_test02>:
  4b:	55                   	push   %ebp
  4c:	89 e5                	mov    %esp,%ebp
  4e:	83 ec 08             	sub    $0x8,%esp
  51:	83 ec 0c             	sub    $0xc,%esp
  54:	6a 03                	push   $0x3
  56:	e8 fc ff ff ff       	call   57 <syscall_test02+0xc>
  5b:	83 c4 10             	add    $0x10,%esp
  5e:	83 ec 0c             	sub    $0xc,%esp
  61:	68 1f 00 00 00       	push   $0x1f
  66:	e8 fc ff ff ff       	call   67 <syscall_test02+0x1c>
  6b:	83 c4 10             	add    $0x10,%esp
  6e:	e8 fc ff ff ff       	call   6f <syscall_test02+0x24>
  73:	90                   	nop
  74:	c9                   	leave
  75:	c3                   	ret
