
bin/arch/x86/sys/syscalls.o:     file format elf32-i386


Disassembly of section .text:

00000000 <syscall>:
   0:	55                   	push   %ebp
   1:	89 e5                	mov    %esp,%ebp
   3:	83 ec 08             	sub    $0x8,%esp
   6:	83 ec 08             	sub    $0x8,%esp
   9:	ff 75 08             	push   0x8(%ebp)
   c:	68 00 00 00 00       	push   $0x0
  11:	e8 fc ff ff ff       	call   12 <syscall+0x12>
  16:	83 c4 10             	add    $0x10,%esp
  19:	89 f8                	mov    %edi,%eax
  1b:	cd 80                	int    $0x80
  1d:	90                   	nop
  1e:	c9                   	leave
  1f:	c3                   	ret

00000020 <syscall_test01>:
  20:	55                   	push   %ebp
  21:	89 e5                	mov    %esp,%ebp
  23:	83 ec 08             	sub    $0x8,%esp
  26:	83 ec 0c             	sub    $0xc,%esp
  29:	6a 03                	push   $0x3
  2b:	e8 fc ff ff ff       	call   2c <syscall_test01+0xc>
  30:	83 c4 10             	add    $0x10,%esp
  33:	83 ec 0c             	sub    $0xc,%esp
  36:	68 03 00 00 00       	push   $0x3
  3b:	e8 fc ff ff ff       	call   3c <syscall_test01+0x1c>
  40:	83 c4 10             	add    $0x10,%esp
  43:	e8 fc ff ff ff       	call   44 <syscall_test01+0x24>
  48:	90                   	nop
  49:	c9                   	leave
  4a:	c3                   	ret

0000004b <syscall_test02>:
  4b:	55                   	push   %ebp
  4c:	89 e5                	mov    %esp,%ebp
  4e:	83 ec 08             	sub    $0x8,%esp
  51:	83 ec 0c             	sub    $0xc,%esp
  54:	6a 03                	push   $0x3
  56:	e8 fc ff ff ff       	call   57 <syscall_test02+0xc>
  5b:	83 c4 10             	add    $0x10,%esp
  5e:	83 ec 0c             	sub    $0xc,%esp
  61:	68 1f 00 00 00       	push   $0x1f
  66:	e8 fc ff ff ff       	call   67 <syscall_test02+0x1c>
  6b:	83 c4 10             	add    $0x10,%esp
  6e:	e8 fc ff ff ff       	call   6f <syscall_test02+0x24>
  73:	90                   	nop
  74:	c9                   	leave
  75:	c3                   	ret

Disassembly of section .rodata:

00000000 <.rodata>:
   0:	25 64 00 5b 53       	and    $0x535b0064,%eax
   5:	59                   	pop    %ecx
   6:	53                   	push   %ebx
   7:	43                   	inc    %ebx
   8:	41                   	inc    %ecx
   9:	4c                   	dec    %esp
   a:	4c                   	dec    %esp
   b:	5d                   	pop    %ebp
   c:	20 53 79             	and    %dl,0x79(%ebx)
   f:	73 63                	jae    74 <syscall_test02+0x29>
  11:	61                   	popa
  12:	6c                   	insb   (%dx),%es:(%edi)
  13:	6c                   	insb   (%dx),%es:(%edi)
  14:	20 31                	and    %dh,(%ecx)
  16:	20 63 61             	and    %ah,0x61(%ebx)
  19:	6c                   	insb   (%dx),%es:(%edi)
  1a:	6c                   	insb   (%dx),%es:(%edi)
  1b:	65 64 0a 00          	gs or  %fs:(%eax),%al
  1f:	5b                   	pop    %ebx
  20:	53                   	push   %ebx
  21:	59                   	pop    %ecx
  22:	53                   	push   %ebx
  23:	43                   	inc    %ebx
  24:	41                   	inc    %ecx
  25:	4c                   	dec    %esp
  26:	4c                   	dec    %esp
  27:	5d                   	pop    %ebp
  28:	20 53 79             	and    %dl,0x79(%ebx)
  2b:	73 63                	jae    90 <syscall_test02+0x45>
  2d:	61                   	popa
  2e:	6c                   	insb   (%dx),%es:(%edi)
  2f:	6c                   	insb   (%dx),%es:(%edi)
  30:	20 32                	and    %dh,(%edx)
  32:	20 63 61             	and    %ah,0x61(%ebx)
  35:	6c                   	insb   (%dx),%es:(%edi)
  36:	6c                   	insb   (%dx),%es:(%edi)
  37:	65 64 0a 00          	gs or  %fs:(%eax),%al

Disassembly of section .debug_info:

00000000 <.debug_info>:
   0:	4b                   	dec    %ebx
   1:	01 00                	add    %eax,(%eax)
   3:	00 05 00 01 04 00    	add    %al,0x40100
   9:	00 00                	add    %al,(%eax)
   b:	00 06                	add    %al,(%esi)
   d:	be 01 00 00 1d       	mov    $0x1d000001,%esi
  12:	1a 00                	sbb    (%eax),%al
	...
  1c:	00 00                	add    %al,(%eax)
  1e:	76 00                	jbe    20 <.debug_info+0x20>
  20:	00 00                	add    %al,(%eax)
  22:	00 00                	add    %al,(%eax)
  24:	00 00                	add    %al,(%eax)
  26:	07                   	pop    %es
  27:	00 00                	add    %al,(%eax)
  29:	00 00                	add    %al,(%eax)
  2b:	07                   	pop    %es
  2c:	04 99                	add    $0x99,%al
  2e:	00 00                	add    %al,(%eax)
  30:	00 02                	add    %al,(%edx)
  32:	03 06                	add    (%esi),%eax
  34:	99                   	cltd
  35:	00 00                	add    %al,(%eax)
  37:	00 01                	add    %al,(%ecx)
  39:	9f                   	lahf
  3a:	00 00                	add    %al,(%eax)
  3c:	00 00                	add    %al,(%eax)
  3e:	01 2a                	add    %ebp,(%edx)
  40:	00 00                	add    %al,(%eax)
  42:	00 01                	add    %al,(%ecx)
  44:	01 c5                	add    %eax,%ebp
  46:	00 00                	add    %al,(%eax)
  48:	00 02                	add    %al,(%edx)
  4a:	01 d5                	add    %edx,%ebp
  4c:	00 00                	add    %al,(%eax)
  4e:	00 03                	add    %al,(%ebx)
  50:	01 b7 00 00 00 04    	add    %esi,0x4000000(%edi)
  56:	01 51 01             	add    %edx,0x1(%ecx)
  59:	00 00                	add    %al,(%eax)
  5b:	05 01 ae 01 00       	add    $0x1ae01,%eax
  60:	00 06                	add    %al,(%esi)
  62:	01 07                	add    %eax,(%edi)
  64:	01 00                	add    %eax,(%eax)
  66:	00 07                	add    %al,(%edi)
  68:	01 63 01             	add    %esp,0x1(%ebx)
  6b:	00 00                	add    %al,(%eax)
  6d:	08 01                	or     %al,(%ecx)
  6f:	99                   	cltd
  70:	01 00                	add    %eax,(%eax)
  72:	00 09                	add    %cl,(%ecx)
  74:	01 25 01 00 00 0a    	add    %esp,0xa000001
  7a:	01 33                	add    %esi,(%ebx)
  7c:	02 00                	add    (%eax),%al
  7e:	00 0b                	add    %cl,(%ebx)
  80:	01 85 01 00 00 0c    	add    %eax,0xc000001(%ebp)
  86:	01 70 00             	add    %esi,0x0(%eax)
  89:	00 00                	add    %al,(%eax)
  8b:	0d 01 3b 01 00       	or     $0x13b01,%eax
  90:	00 0e                	add    %cl,(%esi)
  92:	01 47 00             	add    %eax,0x0(%edi)
  95:	00 00                	add    %al,(%eax)
  97:	0f 00 02             	sldt   (%edx)
  9a:	04 07                	add    $0x7,%al
  9c:	1d 00 00 00 02       	sbb    $0x2000000,%eax
  a1:	01 08                	add    %ecx,(%eax)
  a3:	39 00                	cmp    %eax,(%eax)
  a5:	00 00                	add    %al,(%eax)
  a7:	02 02                	add    (%edx),%al
  a9:	07                   	pop    %es
  aa:	0a 00                	or     (%eax),%al
  ac:	00 00                	add    %al,(%eax)
  ae:	02 08                	add    (%eax),%cl
  b0:	07                   	pop    %es
  b1:	88 00                	mov    %al,(%eax)
  b3:	00 00                	add    %al,(%eax)
  b5:	02 04 07             	add    (%edi,%eax,1),%al
  b8:	5e                   	pop    %esi
  b9:	00 00                	add    %al,(%eax)
  bb:	00 08                	add    %cl,(%eax)
  bd:	25 02 00 00 02       	and    $0x2000002,%eax
  c2:	18 06                	sbb    %al,(%esi)
  c4:	ca 00 00             	lret   $0x0
  c7:	00 03                	add    %al,(%ebx)
  c9:	00 09                	add    %cl,(%ecx)
  cb:	1c 01                	sbb    $0x1,%al
  cd:	00 00                	add    %al,(%eax)
  cf:	02 17                	add    (%edi),%dl
  d1:	06                   	push   %es
  d2:	dc 00                	faddl  (%eax)
  d4:	00 00                	add    %al,(%eax)
  d6:	04 dc                	add    $0xdc,%al
  d8:	00 00                	add    %al,(%eax)
  da:	00 00                	add    %al,(%eax)
  dc:	02 01                	add    (%ecx),%al
  de:	06                   	push   %es
  df:	e4 00                	in     $0x0,%al
  e1:	00 00                	add    %al,(%eax)
  e3:	0a dc                	or     %ah,%bl
  e5:	00 00                	add    %al,(%eax)
  e7:	00 0b                	add    %cl,(%ebx)
  e9:	57                   	push   %edi
  ea:	00 00                	add    %al,(%eax)
  ec:	00 02                	add    %al,(%edx)
  ee:	19 2b                	sbb    %ebp,(%ebx)
  f0:	ff 00                	incl   (%eax)
  f2:	00 00                	add    %al,(%eax)
  f4:	ff 00                	incl   (%eax)
  f6:	00 00                	add    %al,(%eax)
  f8:	04 06                	add    $0x6,%al
  fa:	01 00                	add    %eax,(%eax)
  fc:	00 03                	add    %al,(%ebx)
  fe:	00 0c 04             	add    %cl,(%esp,%eax,1)
 101:	05 69 6e 74 00       	add    $0x746e69,%eax
 106:	0d 04 e3 00 00       	or     $0xe304,%eax
 10b:	00 05 f8 00 00 00    	add    %al,0xf8
 111:	15 4b 00 00 00       	adc    $0x4b,%eax
 116:	2b 00                	sub    (%eax),%eax
 118:	00 00                	add    %al,(%eax)
 11a:	01 9c 05 e9 00 00 00 	add    %ebx,0xe9(%ebp,%eax,1)
 121:	0e                   	push   %cs
 122:	20 00                	and    %al,(%eax)
 124:	00 00                	add    %al,(%eax)
 126:	2b 00                	sub    (%eax),%eax
 128:	00 00                	add    %al,(%eax)
 12a:	01 9c 0e af 00 00 00 	add    %ebx,0xaf(%esi,%ecx,1)
 131:	01 06                	add    %eax,(%esi)
 133:	06                   	push   %es
 134:	00 00                	add    %al,(%eax)
 136:	00 00                	add    %al,(%eax)
 138:	20 00                	and    %al,(%eax)
 13a:	00 00                	add    %al,(%eax)
 13c:	01 9c 0f 77 01 00 00 	add    %ebx,0x177(%edi,%ecx,1)
 143:	01 06                	add    %eax,(%esi)
 145:	12 ff                	adc    %bh,%bh
 147:	00 00                	add    %al,(%eax)
 149:	00 02                	add    %al,(%edx)
 14b:	91                   	xchg   %eax,%ecx
 14c:	00 00                	add    %al,(%eax)
	...

Disassembly of section .debug_abbrev:

00000000 <.debug_abbrev>:
   0:	01 28                	add    %ebp,(%eax)
   2:	00 03                	add    %al,(%ebx)
   4:	0e                   	push   %cs
   5:	1c 0b                	sbb    $0xb,%al
   7:	00 00                	add    %al,(%eax)
   9:	02 24 00             	add    (%eax,%eax,1),%ah
   c:	0b 0b                	or     (%ebx),%ecx
   e:	3e 0b 03             	or     %ds:(%ebx),%eax
  11:	0e                   	push   %cs
  12:	00 00                	add    %al,(%eax)
  14:	03 18                	add    (%eax),%ebx
  16:	00 00                	add    %al,(%eax)
  18:	00 04 05 00 49 13 00 	add    %al,0x134900(,%eax,1)
  1f:	00 05 2e 00 3f 19    	add    %al,0x193f002e
  25:	03 0e                	add    (%esi),%ecx
  27:	3a 21                	cmp    (%ecx),%ah
  29:	01 3b                	add    %edi,(%ebx)
  2b:	0b 39                	or     (%ecx),%edi
  2d:	21 06                	and    %eax,(%esi)
  2f:	27                   	daa
  30:	19 11                	sbb    %edx,(%ecx)
  32:	01 12                	add    %edx,(%edx)
  34:	06                   	push   %es
  35:	40                   	inc    %eax
  36:	18 7c 19 00          	sbb    %bh,0x0(%ecx,%ebx,1)
  3a:	00 06                	add    %al,(%esi)
  3c:	11 01                	adc    %eax,(%ecx)
  3e:	25 0e 13 0b 03       	and    $0x30b130e,%eax
  43:	1f                   	pop    %ds
  44:	1b 1f                	sbb    (%edi),%ebx
  46:	11 01                	adc    %eax,(%ecx)
  48:	12 06                	adc    (%esi),%al
  4a:	10 17                	adc    %dl,(%edi)
  4c:	00 00                	add    %al,(%eax)
  4e:	07                   	pop    %es
  4f:	04 01                	add    $0x1,%al
  51:	03 0e                	add    (%esi),%ecx
  53:	3e 0b 0b             	or     %ds:(%ebx),%ecx
  56:	0b 49 13             	or     0x13(%ecx),%ecx
  59:	3a 0b                	cmp    (%ebx),%cl
  5b:	3b 0b                	cmp    (%ebx),%ecx
  5d:	39 0b                	cmp    %ecx,(%ebx)
  5f:	01 13                	add    %edx,(%ebx)
  61:	00 00                	add    %al,(%eax)
  63:	08 2e                	or     %ch,(%esi)
  65:	01 3f                	add    %edi,(%edi)
  67:	19 03                	sbb    %eax,(%ebx)
  69:	0e                   	push   %cs
  6a:	3a 0b                	cmp    (%ebx),%cl
  6c:	3b 0b                	cmp    (%ebx),%ecx
  6e:	39 0b                	cmp    %ecx,(%ebx)
  70:	3c 19                	cmp    $0x19,%al
  72:	01 13                	add    %edx,(%ebx)
  74:	00 00                	add    %al,(%eax)
  76:	09 2e                	or     %ebp,(%esi)
  78:	01 3f                	add    %edi,(%edi)
  7a:	19 03                	sbb    %eax,(%ebx)
  7c:	0e                   	push   %cs
  7d:	3a 0b                	cmp    (%ebx),%cl
  7f:	3b 0b                	cmp    (%ebx),%ecx
  81:	39 0b                	cmp    %ecx,(%ebx)
  83:	27                   	daa
  84:	19 3c 19             	sbb    %edi,(%ecx,%ebx,1)
  87:	01 13                	add    %edx,(%ebx)
  89:	00 00                	add    %al,(%eax)
  8b:	0a 26                	or     (%esi),%ah
  8d:	00 49 13             	add    %cl,0x13(%ecx)
  90:	00 00                	add    %al,(%eax)
  92:	0b 2e                	or     (%esi),%ebp
  94:	01 3f                	add    %edi,(%edi)
  96:	19 03                	sbb    %eax,(%ebx)
  98:	0e                   	push   %cs
  99:	3a 0b                	cmp    (%ebx),%cl
  9b:	3b 0b                	cmp    (%ebx),%ecx
  9d:	39 0b                	cmp    %ecx,(%ebx)
  9f:	27                   	daa
  a0:	19 49 13             	sbb    %ecx,0x13(%ecx)
  a3:	3c 19                	cmp    $0x19,%al
  a5:	01 13                	add    %edx,(%ebx)
  a7:	00 00                	add    %al,(%eax)
  a9:	0c 24                	or     $0x24,%al
  ab:	00 0b                	add    %cl,(%ebx)
  ad:	0b 3e                	or     (%esi),%edi
  af:	0b 03                	or     (%ebx),%eax
  b1:	08 00                	or     %al,(%eax)
  b3:	00 0d 0f 00 0b 0b    	add    %cl,0xb0b000f
  b9:	49                   	dec    %ecx
  ba:	13 00                	adc    (%eax),%eax
  bc:	00 0e                	add    %cl,(%esi)
  be:	2e 01 3f             	add    %edi,%cs:(%edi)
  c1:	19 03                	sbb    %eax,(%ebx)
  c3:	0e                   	push   %cs
  c4:	3a 0b                	cmp    (%ebx),%cl
  c6:	3b 0b                	cmp    (%ebx),%ecx
  c8:	39 0b                	cmp    %ecx,(%ebx)
  ca:	27                   	daa
  cb:	19 11                	sbb    %edx,(%ecx)
  cd:	01 12                	add    %edx,(%edx)
  cf:	06                   	push   %es
  d0:	40                   	inc    %eax
  d1:	18 7c 19 00          	sbb    %bh,0x0(%ecx,%ebx,1)
  d5:	00 0f                	add    %cl,(%edi)
  d7:	05 00 03 0e 3a       	add    $0x3a0e0300,%eax
  dc:	0b 3b                	or     (%ebx),%edi
  de:	0b 39                	or     (%ecx),%edi
  e0:	0b 49 13             	or     0x13(%ecx),%ecx
  e3:	02 18                	add    (%eax),%bl
  e5:	00 00                	add    %al,(%eax)
	...

Disassembly of section .debug_aranges:

00000000 <.debug_aranges>:
   0:	1c 00                	sbb    $0x0,%al
   2:	00 00                	add    %al,(%eax)
   4:	02 00                	add    (%eax),%al
   6:	00 00                	add    %al,(%eax)
   8:	00 00                	add    %al,(%eax)
   a:	04 00                	add    $0x0,%al
	...
  14:	76 00                	jbe    16 <.debug_aranges+0x16>
	...

Disassembly of section .debug_line:

00000000 <.debug_line>:
   0:	69 00 00 00 05 00    	imul   $0x50000,(%eax),%eax
   6:	04 00                	add    $0x0,%al
   8:	37                   	aaa
   9:	00 00                	add    %al,(%eax)
   b:	00 01                	add    %al,(%ecx)
   d:	01 01                	add    %eax,(%ecx)
   f:	fb                   	sti
  10:	0e                   	push   %cs
  11:	0d 00 01 01 01       	or     $0x1010100,%eax
  16:	01 00                	add    %eax,(%eax)
  18:	00 00                	add    %al,(%eax)
  1a:	01 00                	add    %eax,(%eax)
  1c:	00 01                	add    %al,(%ecx)
  1e:	01 01                	add    %eax,(%ecx)
  20:	1f                   	pop    %ds
  21:	03 36                	add    (%esi),%esi
  23:	00 00                	add    %al,(%eax)
  25:	00 50 00             	add    %dl,0x0(%eax)
  28:	00 00                	add    %al,(%eax)
  2a:	61                   	popa
  2b:	00 00                	add    %al,(%eax)
  2d:	00 02                	add    %al,(%edx)
  2f:	01 1f                	add    %ebx,(%edi)
  31:	02 0f                	add    (%edi),%cl
  33:	03 71 00             	add    0x0(%ecx),%esi
  36:	00 00                	add    %al,(%eax)
  38:	01 7c 00 00          	add    %edi,0x0(%eax,%eax,1)
  3c:	00 01                	add    %al,(%ecx)
  3e:	87 00                	xchg   %eax,(%eax)
  40:	00 00                	add    %al,(%eax)
  42:	02 05 01 00 05 02    	add    0x2050001,%al
  48:	00 00                	add    %al,(%eax)
  4a:	00 00                	add    %al,(%eax)
  4c:	18 05 05 67 08 30    	sbb    %al,0x30086705
  52:	2f                   	das
  53:	05 01 2f 3f 05       	add    $0x53f2f01,%eax
  58:	05 67 c9 f3 05       	add    $0x5f3c967,%eax
  5d:	01 59 3f             	add    %ebx,0x3f(%ecx)
  60:	05 05 67 c9 f3       	add    $0xf3c96705,%eax
  65:	05 01 59 02 03       	add    $0x3025901,%eax
  6a:	00 01                	add    %al,(%ecx)
  6c:	01                   	.byte 0x1

Disassembly of section .debug_str:

00000000 <.debug_str>:
   0:	76 67                	jbe    69 <.debug_str+0x69>
   2:	61                   	popa
   3:	5f                   	pop    %edi
   4:	63 6f 6c             	arpl   %bp,0x6c(%edi)
   7:	6f                   	outsl  %ds:(%esi),(%dx)
   8:	72 00                	jb     a <.debug_str+0xa>
   a:	73 68                	jae    74 <.debug_str+0x74>
   c:	6f                   	outsl  %ds:(%esi),(%dx)
   d:	72 74                	jb     83 <.debug_str+0x83>
   f:	20 75 6e             	and    %dh,0x6e(%ebp)
  12:	73 69                	jae    7d <.debug_str+0x7d>
  14:	67 6e                	outsb  %ds:(%si),(%dx)
  16:	65 64 20 69 6e       	gs and %ch,%fs:0x6e(%ecx)
  1b:	74 00                	je     1d <.debug_str+0x1d>
  1d:	75 6e                	jne    8d <.debug_str+0x8d>
  1f:	73 69                	jae    8a <.debug_str+0x8a>
  21:	67 6e                	outsb  %ds:(%si),(%dx)
  23:	65 64 20 69 6e       	gs and %ch,%fs:0x6e(%ecx)
  28:	74 00                	je     2a <.debug_str+0x2a>
  2a:	56                   	push   %esi
  2b:	47                   	inc    %edi
  2c:	41                   	inc    %ecx
  2d:	5f                   	pop    %edi
  2e:	43                   	inc    %ebx
  2f:	4f                   	dec    %edi
  30:	4c                   	dec    %esp
  31:	4f                   	dec    %edi
  32:	52                   	push   %edx
  33:	5f                   	pop    %edi
  34:	42                   	inc    %edx
  35:	4c                   	dec    %esp
  36:	55                   	push   %ebp
  37:	45                   	inc    %ebp
  38:	00 75 6e             	add    %dh,0x6e(%ebp)
  3b:	73 69                	jae    a6 <.debug_str+0xa6>
  3d:	67 6e                	outsb  %ds:(%si),(%dx)
  3f:	65 64 20 63 68       	gs and %ah,%fs:0x68(%ebx)
  44:	61                   	popa
  45:	72 00                	jb     47 <.debug_str+0x47>
  47:	56                   	push   %esi
  48:	47                   	inc    %edi
  49:	41                   	inc    %ecx
  4a:	5f                   	pop    %edi
  4b:	43                   	inc    %ebx
  4c:	4f                   	dec    %edi
  4d:	4c                   	dec    %esp
  4e:	4f                   	dec    %edi
  4f:	52                   	push   %edx
  50:	5f                   	pop    %edi
  51:	57                   	push   %edi
  52:	48                   	dec    %eax
  53:	49                   	dec    %ecx
  54:	54                   	push   %esp
  55:	45                   	inc    %ebp
  56:	00 70 72             	add    %dh,0x72(%eax)
  59:	69 6e 74 66 00 6c 6f 	imul   $0x6f6c0066,0x74(%esi),%ebp
  60:	6e                   	outsb  %ds:(%esi),(%dx)
  61:	67 20 75 6e          	and    %dh,0x6e(%di)
  65:	73 69                	jae    d0 <.debug_str+0xd0>
  67:	67 6e                	outsb  %ds:(%si),(%dx)
  69:	65 64 20 69 6e       	gs and %ch,%fs:0x6e(%ecx)
  6e:	74 00                	je     70 <.debug_str+0x70>
  70:	56                   	push   %esi
  71:	47                   	inc    %edi
  72:	41                   	inc    %ecx
  73:	5f                   	pop    %edi
  74:	43                   	inc    %ebx
  75:	4f                   	dec    %edi
  76:	4c                   	dec    %esp
  77:	4f                   	dec    %edi
  78:	52                   	push   %edx
  79:	5f                   	pop    %edi
  7a:	4c                   	dec    %esp
  7b:	49                   	dec    %ecx
  7c:	47                   	inc    %edi
  7d:	48                   	dec    %eax
  7e:	54                   	push   %esp
  7f:	5f                   	pop    %edi
  80:	4d                   	dec    %ebp
  81:	41                   	inc    %ecx
  82:	47                   	inc    %edi
  83:	45                   	inc    %ebp
  84:	4e                   	dec    %esi
  85:	54                   	push   %esp
  86:	41                   	inc    %ecx
  87:	00 6c 6f 6e          	add    %ch,0x6e(%edi,%ebp,2)
  8b:	67 20 6c 6f          	and    %ch,0x6f(%si)
  8f:	6e                   	outsb  %ds:(%esi),(%dx)
  90:	67 20 75 6e          	and    %dh,0x6e(%di)
  94:	73 69                	jae    ff <.debug_str+0xff>
  96:	67 6e                	outsb  %ds:(%si),(%dx)
  98:	65 64 20 69 6e       	gs and %ch,%fs:0x6e(%ecx)
  9d:	74 00                	je     9f <.debug_str+0x9f>
  9f:	56                   	push   %esi
  a0:	47                   	inc    %edi
  a1:	41                   	inc    %ecx
  a2:	5f                   	pop    %edi
  a3:	43                   	inc    %ebx
  a4:	4f                   	dec    %edi
  a5:	4c                   	dec    %esp
  a6:	4f                   	dec    %edi
  a7:	52                   	push   %edx
  a8:	5f                   	pop    %edi
  a9:	42                   	inc    %edx
  aa:	4c                   	dec    %esp
  ab:	41                   	inc    %ecx
  ac:	43                   	inc    %ebx
  ad:	4b                   	dec    %ebx
  ae:	00 73 79             	add    %dh,0x79(%ebx)
  b1:	73 63                	jae    116 <.debug_str+0x116>
  b3:	61                   	popa
  b4:	6c                   	insb   (%dx),%es:(%edi)
  b5:	6c                   	insb   (%dx),%es:(%edi)
  b6:	00 56 47             	add    %dl,0x47(%esi)
  b9:	41                   	inc    %ecx
  ba:	5f                   	pop    %edi
  bb:	43                   	inc    %ebx
  bc:	4f                   	dec    %edi
  bd:	4c                   	dec    %esp
  be:	4f                   	dec    %edi
  bf:	52                   	push   %edx
  c0:	5f                   	pop    %edi
  c1:	52                   	push   %edx
  c2:	45                   	inc    %ebp
  c3:	44                   	inc    %esp
  c4:	00 56 47             	add    %dl,0x47(%esi)
  c7:	41                   	inc    %ecx
  c8:	5f                   	pop    %edi
  c9:	43                   	inc    %ebx
  ca:	4f                   	dec    %edi
  cb:	4c                   	dec    %esp
  cc:	4f                   	dec    %edi
  cd:	52                   	push   %edx
  ce:	5f                   	pop    %edi
  cf:	47                   	inc    %edi
  d0:	52                   	push   %edx
  d1:	45                   	inc    %ebp
  d2:	45                   	inc    %ebp
  d3:	4e                   	dec    %esi
  d4:	00 56 47             	add    %dl,0x47(%esi)
  d7:	41                   	inc    %ecx
  d8:	5f                   	pop    %edi
  d9:	43                   	inc    %ebx
  da:	4f                   	dec    %edi
  db:	4c                   	dec    %esp
  dc:	4f                   	dec    %edi
  dd:	52                   	push   %edx
  de:	5f                   	pop    %edi
  df:	43                   	inc    %ebx
  e0:	59                   	pop    %ecx
  e1:	41                   	inc    %ecx
  e2:	4e                   	dec    %esi
  e3:	00 63 68             	add    %ah,0x68(%ebx)
  e6:	61                   	popa
  e7:	72 00                	jb     e9 <.debug_str+0xe9>
  e9:	73 79                	jae    164 <.debug_str+0x164>
  eb:	73 63                	jae    150 <.debug_str+0x150>
  ed:	61                   	popa
  ee:	6c                   	insb   (%dx),%es:(%edi)
  ef:	6c                   	insb   (%dx),%es:(%edi)
  f0:	5f                   	pop    %edi
  f1:	74 65                	je     158 <.debug_str+0x158>
  f3:	73 74                	jae    169 <.debug_str+0x169>
  f5:	30 31                	xor    %dh,(%ecx)
  f7:	00 73 79             	add    %dh,0x79(%ebx)
  fa:	73 63                	jae    15f <.debug_str+0x15f>
  fc:	61                   	popa
  fd:	6c                   	insb   (%dx),%es:(%edi)
  fe:	6c                   	insb   (%dx),%es:(%edi)
  ff:	5f                   	pop    %edi
 100:	74 65                	je     167 <.debug_str+0x167>
 102:	73 74                	jae    178 <.debug_str+0x178>
 104:	30 32                	xor    %dh,(%edx)
 106:	00 56 47             	add    %dl,0x47(%esi)
 109:	41                   	inc    %ecx
 10a:	5f                   	pop    %edi
 10b:	43                   	inc    %ebx
 10c:	4f                   	dec    %edi
 10d:	4c                   	dec    %esp
 10e:	4f                   	dec    %edi
 10f:	52                   	push   %edx
 110:	5f                   	pop    %edi
 111:	4c                   	dec    %esp
 112:	49                   	dec    %ecx
 113:	47                   	inc    %edi
 114:	48                   	dec    %eax
 115:	54                   	push   %esp
 116:	5f                   	pop    %edi
 117:	47                   	inc    %edi
 118:	52                   	push   %edx
 119:	45                   	inc    %ebp
 11a:	59                   	pop    %ecx
 11b:	00 73 65             	add    %dh,0x65(%ebx)
 11e:	74 63                	je     183 <.debug_str+0x183>
 120:	6f                   	outsl  %ds:(%esi),(%dx)
 121:	6c                   	insb   (%dx),%es:(%edi)
 122:	6f                   	outsl  %ds:(%esi),(%dx)
 123:	72 00                	jb     125 <.debug_str+0x125>
 125:	56                   	push   %esi
 126:	47                   	inc    %edi
 127:	41                   	inc    %ecx
 128:	5f                   	pop    %edi
 129:	43                   	inc    %ebx
 12a:	4f                   	dec    %edi
 12b:	4c                   	dec    %esp
 12c:	4f                   	dec    %edi
 12d:	52                   	push   %edx
 12e:	5f                   	pop    %edi
 12f:	4c                   	dec    %esp
 130:	49                   	dec    %ecx
 131:	47                   	inc    %edi
 132:	48                   	dec    %eax
 133:	54                   	push   %esp
 134:	5f                   	pop    %edi
 135:	47                   	inc    %edi
 136:	52                   	push   %edx
 137:	45                   	inc    %ebp
 138:	45                   	inc    %ebp
 139:	4e                   	dec    %esi
 13a:	00 56 47             	add    %dl,0x47(%esi)
 13d:	41                   	inc    %ecx
 13e:	5f                   	pop    %edi
 13f:	43                   	inc    %ebx
 140:	4f                   	dec    %edi
 141:	4c                   	dec    %esp
 142:	4f                   	dec    %edi
 143:	52                   	push   %edx
 144:	5f                   	pop    %edi
 145:	4c                   	dec    %esp
 146:	49                   	dec    %ecx
 147:	47                   	inc    %edi
 148:	48                   	dec    %eax
 149:	54                   	push   %esp
 14a:	5f                   	pop    %edi
 14b:	42                   	inc    %edx
 14c:	52                   	push   %edx
 14d:	4f                   	dec    %edi
 14e:	57                   	push   %edi
 14f:	4e                   	dec    %esi
 150:	00 56 47             	add    %dl,0x47(%esi)
 153:	41                   	inc    %ecx
 154:	5f                   	pop    %edi
 155:	43                   	inc    %ebx
 156:	4f                   	dec    %edi
 157:	4c                   	dec    %esp
 158:	4f                   	dec    %edi
 159:	52                   	push   %edx
 15a:	5f                   	pop    %edi
 15b:	4d                   	dec    %ebp
 15c:	41                   	inc    %ecx
 15d:	47                   	inc    %edi
 15e:	45                   	inc    %ebp
 15f:	4e                   	dec    %esi
 160:	54                   	push   %esp
 161:	41                   	inc    %ecx
 162:	00 56 47             	add    %dl,0x47(%esi)
 165:	41                   	inc    %ecx
 166:	5f                   	pop    %edi
 167:	43                   	inc    %ebx
 168:	4f                   	dec    %edi
 169:	4c                   	dec    %esp
 16a:	4f                   	dec    %edi
 16b:	52                   	push   %edx
 16c:	5f                   	pop    %edi
 16d:	44                   	inc    %esp
 16e:	41                   	inc    %ecx
 16f:	52                   	push   %edx
 170:	4b                   	dec    %ebx
 171:	5f                   	pop    %edi
 172:	47                   	inc    %edi
 173:	52                   	push   %edx
 174:	45                   	inc    %ebp
 175:	59                   	pop    %ecx
 176:	00 73 79             	add    %dh,0x79(%ebx)
 179:	73 63                	jae    1de <.debug_str+0x1de>
 17b:	61                   	popa
 17c:	6c                   	insb   (%dx),%es:(%edi)
 17d:	6c                   	insb   (%dx),%es:(%edi)
 17e:	5f                   	pop    %edi
 17f:	69 6e 64 65 78 00 56 	imul   $0x56007865,0x64(%esi),%ebp
 186:	47                   	inc    %edi
 187:	41                   	inc    %ecx
 188:	5f                   	pop    %edi
 189:	43                   	inc    %ebx
 18a:	4f                   	dec    %edi
 18b:	4c                   	dec    %esp
 18c:	4f                   	dec    %edi
 18d:	52                   	push   %edx
 18e:	5f                   	pop    %edi
 18f:	4c                   	dec    %esp
 190:	49                   	dec    %ecx
 191:	47                   	inc    %edi
 192:	48                   	dec    %eax
 193:	54                   	push   %esp
 194:	5f                   	pop    %edi
 195:	52                   	push   %edx
 196:	45                   	inc    %ebp
 197:	44                   	inc    %esp
 198:	00 56 47             	add    %dl,0x47(%esi)
 19b:	41                   	inc    %ecx
 19c:	5f                   	pop    %edi
 19d:	43                   	inc    %ebx
 19e:	4f                   	dec    %edi
 19f:	4c                   	dec    %esp
 1a0:	4f                   	dec    %edi
 1a1:	52                   	push   %edx
 1a2:	5f                   	pop    %edi
 1a3:	4c                   	dec    %esp
 1a4:	49                   	dec    %ecx
 1a5:	47                   	inc    %edi
 1a6:	48                   	dec    %eax
 1a7:	54                   	push   %esp
 1a8:	5f                   	pop    %edi
 1a9:	42                   	inc    %edx
 1aa:	4c                   	dec    %esp
 1ab:	55                   	push   %ebp
 1ac:	45                   	inc    %ebp
 1ad:	00 56 47             	add    %dl,0x47(%esi)
 1b0:	41                   	inc    %ecx
 1b1:	5f                   	pop    %edi
 1b2:	43                   	inc    %ebx
 1b3:	4f                   	dec    %edi
 1b4:	4c                   	dec    %esp
 1b5:	4f                   	dec    %edi
 1b6:	52                   	push   %edx
 1b7:	5f                   	pop    %edi
 1b8:	42                   	inc    %edx
 1b9:	52                   	push   %edx
 1ba:	4f                   	dec    %edi
 1bb:	57                   	push   %edi
 1bc:	4e                   	dec    %esi
 1bd:	00 47 4e             	add    %al,0x4e(%edi)
 1c0:	55                   	push   %ebp
 1c1:	20 43 31             	and    %al,0x31(%ebx)
 1c4:	31 20                	xor    %esp,(%eax)
 1c6:	31 31                	xor    %esi,(%ecx)
 1c8:	2e 32 2e             	xor    %cs:(%esi),%ch
 1cb:	30 20                	xor    %ah,(%eax)
 1cd:	2d 6d 61 73 6d       	sub    $0x6d73616d,%eax
 1d2:	3d 69 6e 74 65       	cmp    $0x65746e69,%eax
 1d7:	6c                   	insb   (%dx),%es:(%edi)
 1d8:	20 2d 6d 33 32 20    	and    %ch,0x2032336d
 1de:	2d 6d 67 65 6e       	sub    $0x6e65676d,%eax
 1e3:	65 72 61             	gs jb  247 <.debug_str+0x247>
 1e6:	6c                   	insb   (%dx),%es:(%edi)
 1e7:	2d 72 65 67 73       	sub    $0x73676572,%eax
 1ec:	2d 6f 6e 6c 79       	sub    $0x796c6e6f,%eax
 1f1:	20 2d 6d 74 75 6e    	and    %ch,0x6e75746d
 1f7:	65 3d 69 33 38 36    	gs cmp $0x36383369,%eax
 1fd:	20 2d 6d 61 72 63    	and    %ch,0x6372616d
 203:	68 3d 69 33 38       	push   $0x3833693d
 208:	36 20 2d 67 20 2d 73 	and    %ch,%ss:0x732d2067
 20f:	74 64                	je     275 <syscall_test02+0x22a>
 211:	3d 63 31 31 20       	cmp    $0x20313163,%eax
 216:	2d 66 66 72 65       	sub    $0x65726666,%eax
 21b:	65 73 74             	gs jae 292 <syscall_test02+0x247>
 21e:	61                   	popa
 21f:	6e                   	outsb  %ds:(%esi),(%dx)
 220:	64 69 6e 67 00 72 65 	imul   $0x73657200,%fs:0x67(%esi),%ebp
 227:	73 
 228:	74 6f                	je     299 <syscall_test02+0x24e>
 22a:	72 65                	jb     291 <syscall_test02+0x246>
 22c:	5f                   	pop    %edi
 22d:	63 6f 6c             	arpl   %bp,0x6c(%edi)
 230:	6f                   	outsl  %ds:(%esi),(%dx)
 231:	72 00                	jb     233 <.debug_str+0x233>
 233:	56                   	push   %esi
 234:	47                   	inc    %edi
 235:	41                   	inc    %ecx
 236:	5f                   	pop    %edi
 237:	43                   	inc    %ebx
 238:	4f                   	dec    %edi
 239:	4c                   	dec    %esp
 23a:	4f                   	dec    %edi
 23b:	52                   	push   %edx
 23c:	5f                   	pop    %edi
 23d:	4c                   	dec    %esp
 23e:	49                   	dec    %ecx
 23f:	47                   	inc    %edi
 240:	48                   	dec    %eax
 241:	54                   	push   %esp
 242:	5f                   	pop    %edi
 243:	43                   	inc    %ebx
 244:	59                   	pop    %ecx
 245:	41                   	inc    %ecx
 246:	4e                   	dec    %esi
	...

Disassembly of section .debug_line_str:

00000000 <.debug_line_str>:
   0:	2f                   	das
   1:	68 6f 6d 65 2f       	push   $0x2f656d6f
   6:	61                   	popa
   7:	72 69                	jb     72 <.debug_line_str+0x72>
   9:	2f                   	das
   a:	50                   	push   %eax
   b:	72 6f                	jb     7c <.debug_line_str+0x7c>
   d:	6a 65                	push   $0x65
   f:	63 74 73 2f          	arpl   %si,0x2f(%ebx,%esi,2)
  13:	66 6c                	data16 insb (%dx),%es:(%edi)
  15:	6f                   	outsl  %ds:(%esi),(%dx)
  16:	77 6f                	ja     87 <.debug_line_str+0x87>
  18:	73 00                	jae    1a <.debug_line_str+0x1a>
  1a:	73 72                	jae    8e <.debug_line_str+0x8e>
  1c:	63 2f                	arpl   %bp,(%edi)
  1e:	61                   	popa
  1f:	72 63                	jb     84 <.debug_line_str+0x84>
  21:	68 2f 78 38 36       	push   $0x3638782f
  26:	2f                   	das
  27:	73 79                	jae    a2 <syscall_test02+0x57>
  29:	73 2f                	jae    5a <.debug_line_str+0x5a>
  2b:	73 79                	jae    a6 <syscall_test02+0x5b>
  2d:	73 63                	jae    92 <syscall_test02+0x47>
  2f:	61                   	popa
  30:	6c                   	insb   (%dx),%es:(%edi)
  31:	6c                   	insb   (%dx),%es:(%edi)
  32:	73 2e                	jae    62 <.debug_line_str+0x62>
  34:	63 00                	arpl   %ax,(%eax)
  36:	2f                   	das
  37:	68 6f 6d 65 2f       	push   $0x2f656d6f
  3c:	61                   	popa
  3d:	72 69                	jb     a8 <syscall_test02+0x5d>
  3f:	2f                   	das
  40:	50                   	push   %eax
  41:	72 6f                	jb     b2 <syscall_test02+0x67>
  43:	6a 65                	push   $0x65
  45:	63 74 73 2f          	arpl   %si,0x2f(%ebx,%esi,2)
  49:	66 6c                	data16 insb (%dx),%es:(%edi)
  4b:	6f                   	outsl  %ds:(%esi),(%dx)
  4c:	77 6f                	ja     bd <syscall_test02+0x72>
  4e:	73 00                	jae    50 <.debug_line_str+0x50>
  50:	73 72                	jae    c4 <syscall_test02+0x79>
  52:	63 2f                	arpl   %bp,(%edi)
  54:	61                   	popa
  55:	72 63                	jb     ba <syscall_test02+0x6f>
  57:	68 2f 78 38 36       	push   $0x3638782f
  5c:	2f                   	das
  5d:	73 79                	jae    d8 <syscall_test02+0x8d>
  5f:	73 00                	jae    61 <.debug_line_str+0x61>
  61:	73 72                	jae    d5 <syscall_test02+0x8a>
  63:	63 2f                	arpl   %bp,(%edi)
  65:	69 6e 63 6c 75 64 65 	imul   $0x6564756c,0x63(%esi),%ebp
  6c:	2f                   	das
  6d:	6c                   	insb   (%dx),%es:(%edi)
  6e:	69 62 00 73 79 73 63 	imul   $0x63737973,0x0(%edx),%esp
  75:	61                   	popa
  76:	6c                   	insb   (%dx),%es:(%edi)
  77:	6c                   	insb   (%dx),%es:(%edi)
  78:	73 2e                	jae    a8 <syscall_test02+0x5d>
  7a:	63 00                	arpl   %ax,(%eax)
  7c:	73 79                	jae    f7 <syscall_test02+0xac>
  7e:	73 63                	jae    e3 <syscall_test02+0x98>
  80:	61                   	popa
  81:	6c                   	insb   (%dx),%es:(%edi)
  82:	6c                   	insb   (%dx),%es:(%edi)
  83:	73 2e                	jae    b3 <syscall_test02+0x68>
  85:	63 00                	arpl   %ax,(%eax)
  87:	70 72                	jo     fb <syscall_test02+0xb0>
  89:	69                   	.byte 0x69
  8a:	6e                   	outsb  %ds:(%esi),(%dx)
  8b:	74 2e                	je     bb <syscall_test02+0x70>
  8d:	68                   	.byte 0x68
	...

Disassembly of section .comment:

00000000 <.comment>:
   0:	00 47 43             	add    %al,0x43(%edi)
   3:	43                   	inc    %ebx
   4:	3a 20                	cmp    (%eax),%ah
   6:	28 47 4e             	sub    %al,0x4e(%edi)
   9:	55                   	push   %ebp
   a:	29 20                	sub    %esp,(%eax)
   c:	31 31                	xor    %esi,(%ecx)
   e:	2e 32 2e             	xor    %cs:(%esi),%ch
  11:	30 00                	xor    %al,(%eax)

Disassembly of section .debug_frame:

00000000 <.debug_frame>:
   0:	10 00                	adc    %al,(%eax)
   2:	00 00                	add    %al,(%eax)
   4:	ff                   	(bad)
   5:	ff                   	(bad)
   6:	ff                   	(bad)
   7:	ff 01                	incl   (%ecx)
   9:	00 01                	add    %al,(%ecx)
   b:	7c 08                	jl     15 <.debug_frame+0x15>
   d:	0c 04                	or     $0x4,%al
   f:	04 88                	add    $0x88,%al
  11:	01 00                	add    %eax,(%eax)
  13:	00 1c 00             	add    %bl,(%eax,%eax,1)
	...
  1e:	00 00                	add    %al,(%eax)
  20:	20 00                	and    %al,(%eax)
  22:	00 00                	add    %al,(%eax)
  24:	41                   	inc    %ecx
  25:	0e                   	push   %cs
  26:	08 85 02 42 0d 05    	or     %al,0x50d4202(%ebp)
  2c:	5c                   	pop    %esp
  2d:	c5 0c 04             	lds    (%esp,%eax,1),%ecx
  30:	04 00                	add    $0x0,%al
  32:	00 00                	add    %al,(%eax)
  34:	1c 00                	sbb    $0x0,%al
  36:	00 00                	add    %al,(%eax)
  38:	00 00                	add    %al,(%eax)
  3a:	00 00                	add    %al,(%eax)
  3c:	20 00                	and    %al,(%eax)
  3e:	00 00                	add    %al,(%eax)
  40:	2b 00                	sub    (%eax),%eax
  42:	00 00                	add    %al,(%eax)
  44:	41                   	inc    %ecx
  45:	0e                   	push   %cs
  46:	08 85 02 42 0d 05    	or     %al,0x50d4202(%ebp)
  4c:	67 c5 0c             	lds    (%si),%ecx
  4f:	04 04                	add    $0x4,%al
  51:	00 00                	add    %al,(%eax)
  53:	00 1c 00             	add    %bl,(%eax,%eax,1)
  56:	00 00                	add    %al,(%eax)
  58:	00 00                	add    %al,(%eax)
  5a:	00 00                	add    %al,(%eax)
  5c:	4b                   	dec    %ebx
  5d:	00 00                	add    %al,(%eax)
  5f:	00 2b                	add    %ch,(%ebx)
  61:	00 00                	add    %al,(%eax)
  63:	00 41 0e             	add    %al,0xe(%ecx)
  66:	08 85 02 42 0d 05    	or     %al,0x50d4202(%ebp)
  6c:	67 c5 0c             	lds    (%si),%ecx
  6f:	04 04                	add    $0x4,%al
  71:	00 00                	add    %al,(%eax)
	...
